target datalayout = "e-m:e-p270:32:32-p271:32:32-p272:64:64-i64:64-i128:128-f80:128-n8:16:32:64-S128"
target triple = "x86_64-pc-linux-gnu"

%struct.hwloc_infos_s = type { ptr, i32, i32 }
%struct.hwloc_obj = type { i32, ptr, i32, ptr, i64, ptr, i32, i32, ptr, ptr, ptr, i32, ptr, ptr, i32, ptr, ptr, ptr, i32, i32, ptr, i32, ptr, i32, ptr, ptr, ptr, ptr, ptr, %struct.hwloc_infos_s, ptr, i64 }

; Function Attrs: inlinehint nounwind uwtable
define internal ptr @hwloc_get_next_obj_by_depth(ptr noundef %0, i32 noundef %1, ptr noundef %2) #4 {
  %4 = alloca ptr, align 8
  %5 = alloca ptr, align 8
  %6 = alloca i32, align 4
  %7 = alloca ptr, align 8
  store ptr %0, ptr %5, align 8, !tbaa !3
  store i32 %1, ptr %6, align 4, !tbaa !10
  store ptr %2, ptr %7, align 8, !tbaa !51
  %8 = load ptr, ptr %7, align 8, !tbaa !51
  %9 = icmp ne ptr %8, null
  br i1 %9, label %14, label %10

10:                                               ; preds = %3
  %11 = load ptr, ptr %5, align 8, !tbaa !3
  %12 = load i32, ptr %6, align 4, !tbaa !10
  %13 = call ptr @hwloc_get_obj_by_depth(ptr noundef %11, i32 noundef %12, i32 noundef 0) #10
  store ptr %13, ptr %4, align 8
  br label %25

14:                                               ; preds = %3
  %15 = load ptr, ptr %7, align 8, !tbaa !51
  %16 = getelementptr inbounds nuw %struct.hwloc_obj, ptr %15, i32 0, i32 6
  %17 = load i32, ptr %16, align 8, !tbaa !124
  %18 = load i32, ptr %6, align 4, !tbaa !10
  %19 = icmp ne i32 %17, %18
  br i1 %19, label %20, label %21

20:                                               ; preds = %14
  store ptr null, ptr %4, align 8
  br label %25

21:                                               ; preds = %14
  %22 = load ptr, ptr %7, align 8, !tbaa !51
  %23 = getelementptr inbounds nuw %struct.hwloc_obj, ptr %22, i32 0, i32 8
  %24 = load ptr, ptr %23, align 8, !tbaa !122
  store ptr %24, ptr %4, align 8
  br label %25

25:                                               ; preds = %21, %20, %10
  %26 = load ptr, ptr %4, align 8
  ret ptr %26
}

; Function Attrs: inlinehint nounwind uwtable
define internal ptr @hwloc_get_next_obj_covering_cpuset_by_depth(ptr noundef %0, ptr noundef %1, i32 noundef %2, ptr noundef %3) #4 {
  %5 = alloca ptr, align 8
  %6 = alloca ptr, align 8
  %7 = alloca ptr, align 8
  %8 = alloca i32, align 4
  %9 = alloca ptr, align 8
  %10 = alloca ptr, align 8
  %11 = alloca i32, align 4
  store ptr %0, ptr %6, align 8, !tbaa !3
  store ptr %1, ptr %7, align 8, !tbaa !8
  store i32 %2, ptr %8, align 4, !tbaa !10
  store ptr %3, ptr %9, align 8, !tbaa !51
  call void @llvm.lifetime.start.p0(i64 8, ptr %10) #9
  %12 = load ptr, ptr %6, align 8, !tbaa !3
  %13 = load i32, ptr %8, align 4, !tbaa !10
  %14 = load ptr, ptr %9, align 8, !tbaa !51
  %15 = call ptr @hwloc_get_next_obj_by_depth(ptr noundef %12, i32 noundef %13, ptr noundef %14)
  store ptr %15, ptr %10, align 8, !tbaa !51
  %16 = load ptr, ptr %10, align 8, !tbaa !51
  %17 = icmp ne ptr %16, null
  br i1 %17, label %19, label %18

18:                                               ; preds = %4
  store ptr null, ptr %5, align 8
  store i32 1, ptr %11, align 4
  br label %39

19:                                               ; preds = %4
  br label %20

20:                                               ; preds = %33, %19
  %21 = load ptr, ptr %10, align 8, !tbaa !51
  %22 = icmp ne ptr %21, null
  br i1 %22, label %23, label %31

23:                                               ; preds = %20
  %24 = load ptr, ptr %7, align 8, !tbaa !8
  %25 = load ptr, ptr %10, align 8, !tbaa !51
  %26 = getelementptr inbounds nuw %struct.hwloc_obj, ptr %25, i32 0, i32 25
  %27 = load ptr, ptr %26, align 8, !tbaa !58
  %28 = call i32 @hwloc_bitmap_intersects(ptr noundef %24, ptr noundef %27) #10
  %29 = icmp ne i32 %28, 0
  %30 = xor i1 %29, true
  br label %31

31:                                               ; preds = %23, %20
  %32 = phi i1 [ false, %20 ], [ %30, %23 ]
  br i1 %32, label %33, label %37

33:                                               ; preds = %31
  %34 = load ptr, ptr %10, align 8, !tbaa !51
  %35 = getelementptr inbounds nuw %struct.hwloc_obj, ptr %34, i32 0, i32 8
  %36 = load ptr, ptr %35, align 8, !tbaa !122
  store ptr %36, ptr %10, align 8, !tbaa !51
  br label %20, !llvm.loop !123

37:                                               ; preds = %31
  %38 = load ptr, ptr %10, align 8, !tbaa !51
  store ptr %38, ptr %5, align 8
  store i32 1, ptr %11, align 4
  br label %39

39:                                               ; preds = %37, %18
  call void @llvm.lifetime.end.p0(i64 8, ptr %10) #9
  %40 = load ptr, ptr %5, align 8
  ret ptr %40
}

; Function Attrs: inlinehint nounwind uwtable
define internal i32 @hwloc_cpuset_to_nodeset(ptr noundef %0, ptr noundef %1, ptr noundef %2) #4 {
  %4 = alloca i32, align 4
  %5 = alloca ptr, align 8
  %6 = alloca ptr, align 8
  %7 = alloca ptr, align 8
  %8 = alloca i32, align 4
  %9 = alloca ptr, align 8
  %10 = alloca i32, align 4
  store ptr %0, ptr %5, align 8, !tbaa !3
  store ptr %1, ptr %6, align 8, !tbaa !8
  store ptr %2, ptr %7, align 8, !tbaa !8
  call void @llvm.lifetime.start.p0(i64 4, ptr %8) #9
  %11 = load ptr, ptr %5, align 8, !tbaa !3
  %12 = call i32 @hwloc_get_type_depth(ptr noundef %11, i32 noundef 14)
  store i32 %12, ptr %8, align 4, !tbaa !10
  call void @llvm.lifetime.start.p0(i64 8, ptr %9) #9
  store ptr null, ptr %9, align 8, !tbaa !51
  %13 = load ptr, ptr %7, align 8, !tbaa !8
  call void @hwloc_bitmap_zero(ptr noundef %13)
  br label %14

14:                                               ; preds = %29, %3
  %15 = load ptr, ptr %5, align 8, !tbaa !3
  %16 = load ptr, ptr %6, align 8, !tbaa !8
  %17 = load i32, ptr %8, align 4, !tbaa !10
  %18 = load ptr, ptr %9, align 8, !tbaa !51
  %19 = call ptr @hwloc_get_next_obj_covering_cpuset_by_depth(ptr noundef %15, ptr noundef %16, i32 noundef %17, ptr noundef %18)
  store ptr %19, ptr %9, align 8, !tbaa !51
  %20 = icmp ne ptr %19, null
  br i1 %20, label %21, label %30

21:                                               ; preds = %14
  %22 = load ptr, ptr %7, align 8, !tbaa !8
  %23 = load ptr, ptr %9, align 8, !tbaa !51
  %24 = getelementptr inbounds nuw %struct.hwloc_obj, ptr %23, i32 0, i32 2
  %25 = load i32, ptr %24, align 8, !tbaa !53
  %26 = call i32 @hwloc_bitmap_set(ptr noundef %22, i32 noundef %25)
  %27 = icmp slt i32 %26, 0
  br i1 %27, label %28, label %29

28:                                               ; preds = %21
  store i32 -1, ptr %4, align 4
  store i32 1, ptr %10, align 4
  br label %31

29:                                               ; preds = %21
  br label %14, !llvm.loop !121

30:                                               ; preds = %14
  store i32 0, ptr %4, align 4
  store i32 1, ptr %10, align 4
  br label %31

31:                                               ; preds = %30, %28
  call void @llvm.lifetime.end.p0(i64 8, ptr %9) #9
  call void @llvm.lifetime.end.p0(i64 4, ptr %8) #9
  %32 = load i32, ptr %4, align 4
  ret i32 %32
}

; Function Attrs: nounwind uwtable
define internal i32 @hwloc_fix_membind_cpuset(ptr noundef %0, ptr noundef %1, ptr noundef %2) #0 {
  %4 = alloca i32, align 4
  %5 = alloca ptr, align 8
  %6 = alloca ptr, align 8
  %7 = alloca ptr, align 8
  %8 = alloca ptr, align 8
  %9 = alloca ptr, align 8
  %10 = alloca ptr, align 8
  %11 = alloca i32, align 4
  store ptr %0, ptr %5, align 8, !tbaa !3
  store ptr %1, ptr %6, align 8, !tbaa !8
  store ptr %2, ptr %7, align 8, !tbaa !8
  call void @llvm.lifetime.start.p0(i64 8, ptr %8) #9
  %12 = load ptr, ptr %5, align 8, !tbaa !3
  %13 = call ptr @hwloc_topology_get_topology_cpuset(ptr noundef %12) #10
  store ptr %13, ptr %8, align 8, !tbaa !8
  call void @llvm.lifetime.start.p0(i64 8, ptr %9) #9
  %14 = load ptr, ptr %5, align 8, !tbaa !3
  %15 = call ptr @hwloc_topology_get_complete_cpuset(ptr noundef %14) #10
  store ptr %15, ptr %9, align 8, !tbaa !8
  call void @llvm.lifetime.start.p0(i64 8, ptr %10) #9
  %16 = load ptr, ptr %5, align 8, !tbaa !3
  %17 = call ptr @hwloc_topology_get_complete_nodeset(ptr noundef %16) #10
  store ptr %17, ptr %10, align 8, !tbaa !8
  %18 = load ptr, ptr %7, align 8, !tbaa !8
  %19 = call i32 @hwloc_bitmap_iszero(ptr noundef %18) #10
  %20 = icmp ne i32 %19, 0
  br i1 %20, label %21, label %23

21:                                               ; preds = %3
  %22 = call ptr @__errno_location() #8
  store i32 22, ptr %22, align 4, !tbaa !10
  store i32 -1, ptr %4, align 4
  store i32 1, ptr %11, align 4
  br label %44

23:                                               ; preds = %3
  %24 = load ptr, ptr %7, align 8, !tbaa !8
  %25 = load ptr, ptr %9, align 8, !tbaa !8
  %26 = call i32 @hwloc_bitmap_isincluded(ptr noundef %24, ptr noundef %25) #10
  %27 = icmp ne i32 %26, 0
  br i1 %27, label %30, label %28

28:                                               ; preds = %23
  %29 = call ptr @__errno_location() #8
  store i32 22, ptr %29, align 4, !tbaa !10
  store i32 -1, ptr %4, align 4
  store i32 1, ptr %11, align 4
  br label %44

30:                                               ; preds = %23
  %31 = load ptr, ptr %8, align 8, !tbaa !8
  %32 = load ptr, ptr %7, align 8, !tbaa !8
  %33 = call i32 @hwloc_bitmap_isincluded(ptr noundef %31, ptr noundef %32) #10
  %34 = icmp ne i32 %33, 0
  br i1 %34, label %35, label %39

35:                                               ; preds = %30
  %36 = load ptr, ptr %6, align 8, !tbaa !8
  %37 = load ptr, ptr %10, align 8, !tbaa !8
  %38 = call i32 @hwloc_bitmap_copy(ptr noundef %36, ptr noundef %37)
  store i32 0, ptr %4, align 4
  store i32 1, ptr %11, align 4
  br label %44

39:                                               ; preds = %30
  %40 = load ptr, ptr %5, align 8, !tbaa !3
  %41 = load ptr, ptr %7, align 8, !tbaa !8
  %42 = load ptr, ptr %6, align 8, !tbaa !8
  %43 = call i32 @hwloc_cpuset_to_nodeset(ptr noundef %40, ptr noundef %41, ptr noundef %42)
  store i32 0, ptr %4, align 4
  store i32 1, ptr %11, align 4
  br label %44

44:                                               ; preds = %39, %35, %28, %21
  call void @llvm.lifetime.end.p0(i64 8, ptr %10) #9
  call void @llvm.lifetime.end.p0(i64 8, ptr %9) #9
  call void @llvm.lifetime.end.p0(i64 8, ptr %8) #9
  %45 = load i32, ptr %4, align 4
  ret i32 %45
}