; Function Attrs: nounwind uwtable
define internal fastcc range(i32 -1, 1) i32 @hwloc_fix_membind_cpuset(ptr noundef %0, ptr noundef %1, ptr noundef readonly %2) unnamed_addr #0 {
  %4 = tail call ptr @hwloc_topology_get_topology_cpuset(ptr noundef %0) #13
  %5 = tail call ptr @hwloc_topology_get_complete_nodeset(ptr noundef %0) #13
  %6 = tail call i32 @hwloc_bitmap_iszero(ptr noundef %2) #13
  %.not = icmp eq i32 %6, 0
  br i1 %.not, label %9, label %7

7:                                                ; preds = %3
  %8 = tail call ptr @__errno_location() #12
  store i32 22, ptr %8, align 4, !tbaa !3
  br label %hwloc_cpuset_to_nodeset.exit

9:                                                ; preds = %3
  %10 = tail call ptr @hwloc_topology_get_complete_cpuset(ptr noundef %0) #13
  %11 = tail call i32 @hwloc_bitmap_isincluded(ptr noundef %2, ptr noundef %10) #13
  %.not13 = icmp eq i32 %11, 0
  br i1 %.not13, label %12, label %14

12:                                               ; preds = %9
  %13 = tail call ptr @__errno_location() #12
  store i32 22, ptr %13, align 4, !tbaa !3
  br label %hwloc_cpuset_to_nodeset.exit

14:                                               ; preds = %9
  %15 = tail call i32 @hwloc_bitmap_isincluded(ptr noundef %4, ptr noundef %2) #13
  %.not14 = icmp eq i32 %15, 0
  br i1 %.not14, label %18, label %16

16:                                               ; preds = %14
  %17 = tail call i32 @hwloc_bitmap_copy(ptr noundef %1, ptr noundef %5) #14
  br label %hwloc_cpuset_to_nodeset.exit

18:                                               ; preds = %14
  %19 = tail call i32 @hwloc_get_type_depth(ptr noundef %0, i32 noundef 14) #14
  tail call void @hwloc_bitmap_zero(ptr noundef %1) #14
  br label %20

20:                                               ; preds = %hwloc_get_next_obj_covering_cpuset_by_depth.exit.i, %18
  %.0.i = phi ptr [ null, %18 ], [ %.015.i.i, %hwloc_get_next_obj_covering_cpuset_by_depth.exit.i ]
  %.not.i.i.i = icmp eq ptr %.0.i, null
  br i1 %.not.i.i.i, label %21, label %23

21:                                               ; preds = %20
  %22 = tail call ptr @hwloc_get_obj_by_depth(ptr noundef readonly %0, i32 noundef %19, i32 noundef 0) #13
  br label %hwloc_get_next_obj_by_depth.exit.i.i

23:                                               ; preds = %20
  %24 = getelementptr inbounds nuw i8, ptr %.0.i, i64 48
  %25 = load i32, ptr %24, align 8, !tbaa !44
  %.not7.i.i.i = icmp eq i32 %25, %19
  br i1 %.not7.i.i.i, label %26, label %hwloc_cpuset_to_nodeset.exit

26:                                               ; preds = %23
  %27 = getelementptr inbounds nuw i8, ptr %.0.i, i64 56
  %28 = load ptr, ptr %27, align 8, !tbaa !50
  br label %hwloc_get_next_obj_by_depth.exit.i.i

hwloc_get_next_obj_by_depth.exit.i.i:             ; preds = %26, %21
  %.0.i.i.i = phi ptr [ %28, %26 ], [ %22, %21 ]
  %.not.i.i = icmp eq ptr %.0.i.i.i, null
  br i1 %.not.i.i, label %hwloc_cpuset_to_nodeset.exit, label %.preheader.i.i

.preheader.i.i:                                   ; preds = %hwloc_get_next_obj_by_depth.exit.i.i, %32
  %.015.i.i = phi ptr [ %34, %32 ], [ %.0.i.i.i, %hwloc_get_next_obj_by_depth.exit.i.i ]
  %29 = getelementptr inbounds nuw i8, ptr %.015.i.i, i64 184
  %30 = load ptr, ptr %29, align 8, !tbaa !51
  %31 = tail call i32 @hwloc_bitmap_intersects(ptr noundef readonly %2, ptr noundef %30) #13
  %.not12.i.i = icmp eq i32 %31, 0
  br i1 %.not12.i.i, label %32, label %hwloc_get_next_obj_covering_cpuset_by_depth.exit.i

32:                                               ; preds = %.preheader.i.i
  %33 = getelementptr inbounds nuw i8, ptr %.015.i.i, i64 56
  %34 = load ptr, ptr %33, align 8, !tbaa !50
  %.not11.i.i = icmp eq ptr %34, null
  br i1 %.not11.i.i, label %hwloc_cpuset_to_nodeset.exit, label %.preheader.i.i, !llvm.loop !52

hwloc_get_next_obj_covering_cpuset_by_depth.exit.i: ; preds = %.preheader.i.i
  %35 = getelementptr inbounds nuw i8, ptr %.015.i.i, i64 16
  %36 = load i32, ptr %35, align 8, !tbaa !54
  %37 = tail call i32 @hwloc_bitmap_set(ptr noundef %1, i32 noundef %36) #14
  %38 = icmp slt i32 %37, 0
  br i1 %38, label %hwloc_cpuset_to_nodeset.exit, label %20, !llvm.loop !55

hwloc_cpuset_to_nodeset.exit:                     ; preds = %hwloc_get_next_obj_covering_cpuset_by_depth.exit.i, %hwloc_get_next_obj_by_depth.exit.i.i, %23, %32, %16, %12, %7
  %.0 = phi i32 [ -1, %7 ], [ 0, %16 ], [ -1, %12 ], [ 0, %32 ], [ 0, %23 ], [ 0, %hwloc_get_next_obj_by_depth.exit.i.i ], [ 0, %hwloc_get_next_obj_covering_cpuset_by_depth.exit.i ]
  ret i32 %.0
}